target datalayout = "e-m:e-p270:32:32-p271:32:32-p272:64:64-i64:64-i128:128-f80:128-n8:16:32:64-S128"
target triple = "x86_64-pc-linux-gnu"

%struct.KBKDF = type { ptr, i32, ptr, i32, ptr, i64, ptr, i64, ptr, i64, ptr, i64, i32, i32, i32 }
%struct.ossl_param_st = type { ptr, i32, ptr, i64, i64 }

@.str = private unnamed_addr constant [50 x i8] c"../openssl/providers/implementations/kdfs/kbkdf.c\00", align 1
@__func__.kbkdf_derive = private unnamed_addr constant [13 x i8] c"kbkdf_derive\00", align 1
@.str.1 = private unnamed_addr constant [5 x i8] c"size\00", align 1

; Function Attrs: nounwind uwtable
define internal i32 @be32(i32 noundef %0) #0 {
  %2 = alloca i32, align 4
  %3 = alloca i32, align 4
  %4 = alloca i32, align 4
  store i32 %0, ptr %2, align 4, !tbaa !31
  call void @llvm.lifetime.start.p0(i64 4, ptr %3) #6
  store i32 0, ptr %3, align 4, !tbaa !31
  call void @llvm.lifetime.start.p0(i64 4, ptr %4) #6
  store i32 1, ptr %4, align 4, !tbaa !31
  %5 = load i32, ptr %2, align 4, !tbaa !31
  %6 = and i32 %5, -16777216
  %7 = lshr i32 %6, 24
  %8 = load i32, ptr %3, align 4, !tbaa !31
  %9 = or i32 %8, %7
  store i32 %9, ptr %3, align 4, !tbaa !31
  %10 = load i32, ptr %2, align 4, !tbaa !31
  %11 = and i32 %10, 16711680
  %12 = lshr i32 %11, 8
  %13 = load i32, ptr %3, align 4, !tbaa !31
  %14 = or i32 %13, %12
  store i32 %14, ptr %3, align 4, !tbaa !31
  %15 = load i32, ptr %2, align 4, !tbaa !31
  %16 = and i32 %15, 65280
  %17 = shl i32 %16, 8
  %18 = load i32, ptr %3, align 4, !tbaa !31
  %19 = or i32 %18, %17
  store i32 %19, ptr %3, align 4, !tbaa !31
  %20 = load i32, ptr %2, align 4, !tbaa !31
  %21 = and i32 %20, 255
  %22 = shl i32 %21, 24
  %23 = load i32, ptr %3, align 4, !tbaa !31
  %24 = or i32 %23, %22
  store i32 %24, ptr %3, align 4, !tbaa !31
  %25 = load i32, ptr %3, align 4, !tbaa !31
  call void @llvm.lifetime.end.p0(i64 4, ptr %4) #6
  call void @llvm.lifetime.end.p0(i64 4, ptr %3) #6
  ret i32 %25
}

; Function Attrs: nounwind uwtable
define internal i32 @kmac_derive(ptr noundef %0, ptr noundef %1, i64 noundef %2, ptr noundef %3, i64 noundef %4) #0 {
  %6 = alloca ptr, align 8
  %7 = alloca ptr, align 8
  %8 = alloca i64, align 8
  %9 = alloca ptr, align 8
  %10 = alloca i64, align 8
  %11 = alloca [2 x %struct.ossl_param_st], align 16
  %12 = alloca %struct.ossl_param_st, align 8
  %13 = alloca %struct.ossl_param_st, align 8
  store ptr %0, ptr %6, align 8, !tbaa !37
  store ptr %1, ptr %7, align 8, !tbaa !27
  store i64 %2, ptr %8, align 8, !tbaa !28
  store ptr %3, ptr %9, align 8, !tbaa !27
  store i64 %4, ptr %10, align 8, !tbaa !28
  call void @llvm.lifetime.start.p0(i64 80, ptr %11) #6
  %14 = getelementptr inbounds [2 x %struct.ossl_param_st], ptr %11, i64 0, i64 0
  call void @llvm.lifetime.start.p0(i64 40, ptr %12) #6
  call void @OSSL_PARAM_construct_size_t(ptr dead_on_unwind writable sret(%struct.ossl_param_st) align 8 %12, ptr noundef @.str.1, ptr noundef %8)
  call void @llvm.memcpy.p0.p0.i64(ptr align 16 %14, ptr align 8 %12, i64 40, i1 false), !tbaa.struct !38
  call void @llvm.lifetime.end.p0(i64 40, ptr %12) #6
  %15 = getelementptr inbounds [2 x %struct.ossl_param_st], ptr %11, i64 0, i64 1
  call void @llvm.lifetime.start.p0(i64 40, ptr %13) #6
  call void @OSSL_PARAM_construct_end(ptr dead_on_unwind writable sret(%struct.ossl_param_st) align 8 %13)
  call void @llvm.memcpy.p0.p0.i64(ptr align 8 %15, ptr align 8 %13, i64 40, i1 false), !tbaa.struct !38
  call void @llvm.lifetime.end.p0(i64 40, ptr %13) #6
  %16 = load ptr, ptr %6, align 8, !tbaa !37
  %17 = getelementptr inbounds [2 x %struct.ossl_param_st], ptr %11, i64 0, i64 0
  %18 = call i32 @EVP_MAC_CTX_set_params(ptr noundef %16, ptr noundef %17)
  %19 = icmp sgt i32 %18, 0
  br i1 %19, label %20, label %32

20:                                               ; preds = %5
  %21 = load ptr, ptr %6, align 8, !tbaa !37
  %22 = load ptr, ptr %9, align 8, !tbaa !27
  %23 = load i64, ptr %10, align 8, !tbaa !28
  %24 = call i32 @EVP_MAC_update(ptr noundef %21, ptr noundef %22, i64 noundef %23)
  %25 = icmp ne i32 %24, 0
  br i1 %25, label %26, label %32

26:                                               ; preds = %20
  %27 = load ptr, ptr %6, align 8, !tbaa !37
  %28 = load ptr, ptr %7, align 8, !tbaa !27
  %29 = load i64, ptr %8, align 8, !tbaa !28
  %30 = call i32 @EVP_MAC_final(ptr noundef %27, ptr noundef %28, ptr noundef null, i64 noundef %29)
  %31 = icmp ne i32 %30, 0
  br label %32

32:                                               ; preds = %26, %20, %5
  %33 = phi i1 [ false, %20 ], [ false, %5 ], [ %31, %26 ]
  %34 = zext i1 %33 to i32
  call void @llvm.lifetime.end.p0(i64 80, ptr %11) #6
  ret i32 %34
}

; Function Attrs: nounwind uwtable
define internal i32 @kbkdf_derive(ptr noundef %0, ptr noundef %1, i64 noundef %2, ptr noundef %3) #0 {
  %5 = alloca i32, align 4
  %6 = alloca ptr, align 8
  %7 = alloca ptr, align 8
  %8 = alloca i64, align 8
  %9 = alloca ptr, align 8
  %10 = alloca ptr, align 8
  %11 = alloca i32, align 4
  %12 = alloca ptr, align 8
  %13 = alloca i32, align 4
  %14 = alloca i64, align 8
  %15 = alloca i64, align 8
  %16 = alloca i32, align 4
  store ptr %0, ptr %6, align 8, !tbaa !3
  store ptr %1, ptr %7, align 8, !tbaa !27
  store i64 %2, ptr %8, align 8, !tbaa !28
  store ptr %3, ptr %9, align 8, !tbaa !29
  call void @llvm.lifetime.start.p0(i64 8, ptr %10) #6
  %17 = load ptr, ptr %6, align 8, !tbaa !3
  store ptr %17, ptr %10, align 8, !tbaa !3
  call void @llvm.lifetime.start.p0(i64 4, ptr %11) #6
  store i32 0, ptr %11, align 4, !tbaa !31
  call void @llvm.lifetime.start.p0(i64 8, ptr %12) #6
  store ptr null, ptr %12, align 8, !tbaa !27
  call void @llvm.lifetime.start.p0(i64 4, ptr %13) #6
  store i32 0, ptr %13, align 4, !tbaa !31
  call void @llvm.lifetime.start.p0(i64 8, ptr %14) #6
  store i64 0, ptr %14, align 8, !tbaa !28
  call void @llvm.lifetime.start.p0(i64 8, ptr %15) #6
  %18 = call i32 @ossl_prov_is_running()
  %19 = icmp ne i32 %18, 0
  br i1 %19, label %20, label %25

20:                                               ; preds = %4
  %21 = load ptr, ptr %10, align 8, !tbaa !3
  %22 = load ptr, ptr %9, align 8, !tbaa !29
  %23 = call i32 @kbkdf_set_ctx_params(ptr noundef %21, ptr noundef %22)
  %24 = icmp ne i32 %23, 0
  br i1 %24, label %26, label %25

25:                                               ; preds = %20, %4
  store i32 0, ptr %5, align 4
  store i32 1, ptr %16, align 4
  br label %166

26:                                               ; preds = %20
  %27 = load ptr, ptr %10, align 8, !tbaa !3
  %28 = getelementptr inbounds nuw %struct.KBKDF, ptr %27, i32 0, i32 2
  %29 = load ptr, ptr %28, align 8, !tbaa !13
  %30 = icmp eq ptr %29, null
  br i1 %30, label %31, label %43

31:                                               ; preds = %26
  %32 = load ptr, ptr %10, align 8, !tbaa !3
  %33 = getelementptr inbounds nuw %struct.KBKDF, ptr %32, i32 0, i32 5
  %34 = load i64, ptr %33, align 8, !tbaa !15
  %35 = icmp eq i64 %34, 0
  br i1 %35, label %41, label %36

36:                                               ; preds = %31
  %37 = load ptr, ptr %10, align 8, !tbaa !3
  %38 = getelementptr inbounds nuw %struct.KBKDF, ptr %37, i32 0, i32 4
  %39 = load ptr, ptr %38, align 8, !tbaa !14
  %40 = icmp eq ptr %39, null
  br i1 %40, label %41, label %42

41:                                               ; preds = %36, %31
  call void @ERR_new()
  call void @ERR_set_debug(ptr noundef @.str, i32 noundef 310, ptr noundef @__func__.kbkdf_derive)
  call void (i32, i32, ptr, ...) @ERR_set_error(i32 noundef 57, i32 noundef 114, ptr noundef null)
  store i32 0, ptr %5, align 4
  store i32 1, ptr %16, align 4
  br label %166

42:                                               ; preds = %36
  call void @ERR_new()
  call void @ERR_set_debug(ptr noundef @.str, i32 noundef 315, ptr noundef @__func__.kbkdf_derive)
  call void (i32, i32, ptr, ...) @ERR_set_error(i32 noundef 57, i32 noundef 150, ptr noundef null)
  store i32 0, ptr %5, align 4
  store i32 1, ptr %16, align 4
  br label %166

43:                                               ; preds = %26
  %44 = load i64, ptr %8, align 8, !tbaa !28
  %45 = icmp eq i64 %44, 0
  br i1 %45, label %46, label %47

46:                                               ; preds = %43
  call void @ERR_new()
  call void @ERR_set_debug(ptr noundef @.str, i32 noundef 321, ptr noundef @__func__.kbkdf_derive)
  call void (i32, i32, ptr, ...) @ERR_set_error(i32 noundef 57, i32 noundef 105, ptr noundef null)
  store i32 0, ptr %5, align 4
  store i32 1, ptr %16, align 4
  br label %166

47:                                               ; preds = %43
  %48 = load ptr, ptr %10, align 8, !tbaa !3
  %49 = getelementptr inbounds nuw %struct.KBKDF, ptr %48, i32 0, i32 13
  %50 = load i32, ptr %49, align 4, !tbaa !26
  %51 = icmp ne i32 %50, 0
  br i1 %51, label %52, label %65

52:                                               ; preds = %47
  %53 = load ptr, ptr %10, align 8, !tbaa !3
  %54 = getelementptr inbounds nuw %struct.KBKDF, ptr %53, i32 0, i32 2
  %55 = load ptr, ptr %54, align 8, !tbaa !13
  %56 = load ptr, ptr %7, align 8, !tbaa !27
  %57 = load i64, ptr %8, align 8, !tbaa !28
  %58 = load ptr, ptr %10, align 8, !tbaa !3
  %59 = getelementptr inbounds nuw %struct.KBKDF, ptr %58, i32 0, i32 8
  %60 = load ptr, ptr %59, align 8, !tbaa !18
  %61 = load ptr, ptr %10, align 8, !tbaa !3
  %62 = getelementptr inbounds nuw %struct.KBKDF, ptr %61, i32 0, i32 9
  %63 = load i64, ptr %62, align 8, !tbaa !19
  %64 = call i32 @kmac_derive(ptr noundef %55, ptr noundef %56, i64 noundef %57, ptr noundef %60, i64 noundef %63)
  store i32 %64, ptr %11, align 4, !tbaa !31
  br label %156

65:                                               ; preds = %47
  %66 = load ptr, ptr %10, align 8, !tbaa !3
  %67 = getelementptr inbounds nuw %struct.KBKDF, ptr %66, i32 0, i32 2
  %68 = load ptr, ptr %67, align 8, !tbaa !13
  %69 = call i64 @EVP_MAC_CTX_get_mac_size(ptr noundef %68)
  store i64 %69, ptr %14, align 8, !tbaa !28
  %70 = load i64, ptr %14, align 8, !tbaa !28
  %71 = icmp eq i64 %70, 0
  br i1 %71, label %72, label %73

72:                                               ; preds = %65
  br label %156

73:                                               ; preds = %65
  %74 = load ptr, ptr %10, align 8, !tbaa !3
  %75 = getelementptr inbounds nuw %struct.KBKDF, ptr %74, i32 0, i32 11
  %76 = load i64, ptr %75, align 8, !tbaa !21
  %77 = icmp ne i64 %76, 0
  br i1 %77, label %78, label %85

78:                                               ; preds = %73
  %79 = load ptr, ptr %10, align 8, !tbaa !3
  %80 = getelementptr inbounds nuw %struct.KBKDF, ptr %79, i32 0, i32 11
  %81 = load i64, ptr %80, align 8, !tbaa !21
  %82 = load i64, ptr %14, align 8, !tbaa !28
  %83 = icmp ne i64 %81, %82
  br i1 %83, label %84, label %85

84:                                               ; preds = %78
  call void @ERR_new()
  call void @ERR_set_debug(ptr noundef @.str, i32 noundef 336, ptr noundef @__func__.kbkdf_derive)
  call void (i32, i32, ptr, ...) @ERR_set_error(i32 noundef 57, i32 noundef 154, ptr noundef null)
  br label %156

85:                                               ; preds = %78, %73
  %86 = load ptr, ptr %10, align 8, !tbaa !3
  %87 = getelementptr inbounds nuw %struct.KBKDF, ptr %86, i32 0, i32 1
  %88 = load i32, ptr %87, align 8, !tbaa !22
  %89 = icmp eq i32 %88, 0
  br i1 %89, label %90, label %103

90:                                               ; preds = %85
  %91 = load ptr, ptr %10, align 8, !tbaa !3
  %92 = getelementptr inbounds nuw %struct.KBKDF, ptr %91, i32 0, i32 3
  %93 = load i32, ptr %92, align 8, !tbaa !23
  %94 = sext i32 %93 to i64
  %95 = shl i64 1, %94
  store i64 %95, ptr %15, align 8, !tbaa !28
  %96 = load i64, ptr %8, align 8, !tbaa !28
  %97 = load i64, ptr %14, align 8, !tbaa !28
  %98 = udiv i64 %96, %97
  %99 = load i64, ptr %15, align 8, !tbaa !28
  %100 = icmp uge i64 %98, %99
  br i1 %100, label %101, label %102

101:                                              ; preds = %90
  call void @ERR_new()
  call void @ERR_set_debug(ptr noundef @.str, i32 noundef 344, ptr noundef @__func__.kbkdf_derive)
  call void (i32, i32, ptr, ...) @ERR_set_error(i32 noundef 57, i32 noundef 105, ptr noundef null)
  br label %156

102:                                              ; preds = %90
  br label %103

103:                                              ; preds = %102, %85
  %104 = load ptr, ptr %10, align 8, !tbaa !3
  %105 = getelementptr inbounds nuw %struct.KBKDF, ptr %104, i32 0, i32 12
  %106 = load i32, ptr %105, align 8, !tbaa !24
  %107 = icmp ne i32 %106, 0
  br i1 %107, label %108, label %113

108:                                              ; preds = %103
  %109 = load i64, ptr %8, align 8, !tbaa !28
  %110 = mul i64 %109, 8
  %111 = trunc i64 %110 to i32
  %112 = call i32 @be32(i32 noundef %111)
  store i32 %112, ptr %13, align 4, !tbaa !31
  br label %113

113:                                              ; preds = %108, %103
  %114 = load i64, ptr %14, align 8, !tbaa !28
  %115 = call noalias ptr @CRYPTO_zalloc(i64 noundef %114, ptr noundef @.str, i32 noundef 352)
  store ptr %115, ptr %12, align 8, !tbaa !27
  %116 = load ptr, ptr %12, align 8, !tbaa !27
  %117 = icmp eq ptr %116, null
  br i1 %117, label %118, label %119

118:                                              ; preds = %113
  br label %156

119:                                              ; preds = %113
  %120 = load ptr, ptr %10, align 8, !tbaa !3
  %121 = getelementptr inbounds nuw %struct.KBKDF, ptr %120, i32 0, i32 2
  %122 = load ptr, ptr %121, align 8, !tbaa !13
  %123 = load ptr, ptr %10, align 8, !tbaa !3
  %124 = getelementptr inbounds nuw %struct.KBKDF, ptr %123, i32 0, i32 1
  %125 = load i32, ptr %124, align 8, !tbaa !22
  %126 = load ptr, ptr %10, align 8, !tbaa !3
  %127 = getelementptr inbounds nuw %struct.KBKDF, ptr %126, i32 0, i32 10
  %128 = load ptr, ptr %127, align 8, !tbaa !20
  %129 = load ptr, ptr %10, align 8, !tbaa !3
  %130 = getelementptr inbounds nuw %struct.KBKDF, ptr %129, i32 0, i32 11
  %131 = load i64, ptr %130, align 8, !tbaa !21
  %132 = load ptr, ptr %10, align 8, !tbaa !3
  %133 = getelementptr inbounds nuw %struct.KBKDF, ptr %132, i32 0, i32 6
  %134 = load ptr, ptr %133, align 8, !tbaa !16
  %135 = load ptr, ptr %10, align 8, !tbaa !3
  %136 = getelementptr inbounds nuw %struct.KBKDF, ptr %135, i32 0, i32 7
  %137 = load i64, ptr %136, align 8, !tbaa !17
  %138 = load ptr, ptr %10, align 8, !tbaa !3
  %139 = getelementptr inbounds nuw %struct.KBKDF, ptr %138, i32 0, i32 8
  %140 = load ptr, ptr %139, align 8, !tbaa !18
  %141 = load ptr, ptr %10, align 8, !tbaa !3
  %142 = getelementptr inbounds nuw %struct.KBKDF, ptr %141, i32 0, i32 9
  %143 = load i64, ptr %142, align 8, !tbaa !19
  %144 = load ptr, ptr %12, align 8, !tbaa !27
  %145 = load i64, ptr %14, align 8, !tbaa !28
  %146 = load i32, ptr %13, align 4, !tbaa !31
  %147 = load ptr, ptr %10, align 8, !tbaa !3
  %148 = getelementptr inbounds nuw %struct.KBKDF, ptr %147, i32 0, i32 14
  %149 = load i32, ptr %148, align 8, !tbaa !25
  %150 = load ptr, ptr %7, align 8, !tbaa !27
  %151 = load i64, ptr %8, align 8, !tbaa !28
  %152 = load ptr, ptr %10, align 8, !tbaa !3
  %153 = getelementptr inbounds nuw %struct.KBKDF, ptr %152, i32 0, i32 3
  %154 = load i32, ptr %153, align 8, !tbaa !23
  %155 = call i32 @derive(ptr noundef %122, i32 noundef %125, ptr noundef %128, i64 noundef %131, ptr noundef %134, i64 noundef %137, ptr noundef %140, i64 noundef %143, ptr noundef %144, i64 noundef %145, i32 noundef %146, i32 noundef %149, ptr noundef %150, i64 noundef %151, i32 noundef %154)
  store i32 %155, ptr %11, align 4, !tbaa !31
  br label %156

156:                                              ; preds = %119, %118, %101, %84, %72, %52
  %157 = load i32, ptr %11, align 4, !tbaa !31
  %158 = icmp ne i32 %157, 1
  br i1 %158, label %159, label %162

159:                                              ; preds = %156
  %160 = load ptr, ptr %7, align 8, !tbaa !27
  %161 = load i64, ptr %8, align 8, !tbaa !28
  call void @OPENSSL_cleanse(ptr noundef %160, i64 noundef %161)
  br label %162

162:                                              ; preds = %159, %156
  %163 = load ptr, ptr %12, align 8, !tbaa !27
  %164 = load i64, ptr %14, align 8, !tbaa !28
  call void @CRYPTO_clear_free(ptr noundef %163, i64 noundef %164, ptr noundef @.str, i32 noundef 362)
  %165 = load i32, ptr %11, align 4, !tbaa !31
  store i32 %165, ptr %5, align 4
  store i32 1, ptr %16, align 4
  br label %166

166:                                              ; preds = %162, %46, %42, %41, %25
  call void @llvm.lifetime.end.p0(i64 8, ptr %15) #6
  call void @llvm.lifetime.end.p0(i64 8, ptr %14) #6
  call void @llvm.lifetime.end.p0(i64 4, ptr %13) #6
  call void @llvm.lifetime.end.p0(i64 8, ptr %12) #6
  call void @llvm.lifetime.end.p0(i64 4, ptr %11) #6
  call void @llvm.lifetime.end.p0(i64 8, ptr %10) #6
  %167 = load i32, ptr %5, align 4
  ret i32 %167
}