; Function Attrs: nounwind uwtable
define internal range(i32 0, 2) i32 @kbkdf_derive(ptr noundef %0, ptr noundef %1, i64 noundef %2, ptr noundef %3) #0 {
  %5 = alloca i64, align 8
  %6 = alloca [2 x %struct.ossl_param_st], align 16
  %7 = alloca %struct.ossl_param_st, align 8
  %8 = tail call i32 @ossl_prov_is_running() #7
  %.not = icmp eq i32 %8, 0
  br i1 %.not, label %90, label %9

9:                                                ; preds = %4
  %10 = tail call i32 @kbkdf_set_ctx_params(ptr noundef %0, ptr noundef %3)
  %.not58 = icmp eq i32 %10, 0
  br i1 %.not58, label %90, label %11

11:                                               ; preds = %9
  %12 = getelementptr inbounds nuw i8, ptr %0, i64 16
  %13 = load ptr, ptr %12, align 8, !tbaa !16
  %14 = icmp eq ptr %13, null
  br i1 %14, label %15, label %25

15:                                               ; preds = %11
  %16 = getelementptr inbounds nuw i8, ptr %0, i64 40
  %17 = load i64, ptr %16, align 8, !tbaa !18
  %18 = icmp eq i64 %17, 0
  br i1 %18, label %23, label %19

19:                                               ; preds = %15
  %20 = getelementptr inbounds nuw i8, ptr %0, i64 32
  %21 = load ptr, ptr %20, align 8, !tbaa !17
  %22 = icmp eq ptr %21, null
  br i1 %22, label %23, label %24

23:                                               ; preds = %19, %15
  tail call void @ERR_new() #7
  tail call void @ERR_set_debug(ptr noundef nonnull @.str, i32 noundef 310, ptr noundef nonnull @__func__.kbkdf_derive) #7
  tail call void (i32, i32, ptr, ...) @ERR_set_error(i32 noundef 57, i32 noundef 114, ptr noundef null) #7
  br label %90

24:                                               ; preds = %19
  tail call void @ERR_new() #7
  tail call void @ERR_set_debug(ptr noundef nonnull @.str, i32 noundef 315, ptr noundef nonnull @__func__.kbkdf_derive) #7
  tail call void (i32, i32, ptr, ...) @ERR_set_error(i32 noundef 57, i32 noundef 150, ptr noundef null) #7
  br label %90

25:                                               ; preds = %11
  %26 = icmp eq i64 %2, 0
  br i1 %26, label %27, label %28

27:                                               ; preds = %25
  tail call void @ERR_new() #7
  tail call void @ERR_set_debug(ptr noundef nonnull @.str, i32 noundef 321, ptr noundef nonnull @__func__.kbkdf_derive) #7
  tail call void (i32, i32, ptr, ...) @ERR_set_error(i32 noundef 57, i32 noundef 105, ptr noundef null) #7
  br label %90

28:                                               ; preds = %25
  %29 = getelementptr inbounds nuw i8, ptr %0, i64 100
  %30 = load i32, ptr %29, align 4, !tbaa !15
  %.not59 = icmp eq i32 %30, 0
  br i1 %.not59, label %47, label %31

31:                                               ; preds = %28
  %32 = getelementptr inbounds nuw i8, ptr %0, i64 64
  %33 = load ptr, ptr %32, align 8, !tbaa !21
  %34 = getelementptr inbounds nuw i8, ptr %0, i64 72
  %35 = load i64, ptr %34, align 8, !tbaa !22
  call void @llvm.lifetime.start.p0(i64 8, ptr nonnull %5)
  store i64 %2, ptr %5, align 8, !tbaa !26
  call void @llvm.lifetime.start.p0(i64 80, ptr nonnull %6) #7
  call void @OSSL_PARAM_construct_size_t(ptr dead_on_unwind nonnull writable sret(%struct.ossl_param_st) align 8 %6, ptr noundef nonnull @.str.1, ptr noundef nonnull %5) #7
  %36 = getelementptr inbounds nuw i8, ptr %6, i64 40
  call void @llvm.lifetime.start.p0(i64 40, ptr nonnull %7) #7
  call void @OSSL_PARAM_construct_end(ptr dead_on_unwind nonnull writable sret(%struct.ossl_param_st) align 8 %7) #7
  call void @llvm.memcpy.p0.p0.i64(ptr noundef nonnull align 8 dereferenceable(40) %36, ptr noundef nonnull align 8 dereferenceable(40) %7, i64 40, i1 false), !tbaa.struct !27
  call void @llvm.lifetime.end.p0(i64 40, ptr nonnull %7) #7
  %37 = call i32 @EVP_MAC_CTX_set_params(ptr noundef nonnull %13, ptr noundef nonnull %6) #7
  %38 = icmp sgt i32 %37, 0
  br i1 %38, label %39, label %kmac_derive.exit

39:                                               ; preds = %31
  %40 = call i32 @EVP_MAC_update(ptr noundef nonnull %13, ptr noundef %33, i64 noundef %35) #7
  %.not.i = icmp eq i32 %40, 0
  br i1 %.not.i, label %kmac_derive.exit, label %41

41:                                               ; preds = %39
  %42 = load i64, ptr %5, align 8, !tbaa !26
  %43 = call i32 @EVP_MAC_final(ptr noundef nonnull %13, ptr noundef %1, ptr noundef null, i64 noundef %42) #7
  %44 = icmp ne i32 %43, 0
  %45 = zext i1 %44 to i32
  br label %kmac_derive.exit

kmac_derive.exit:                                 ; preds = %31, %39, %41
  %46 = phi i32 [ 0, %39 ], [ 0, %31 ], [ %45, %41 ]
  call void @llvm.lifetime.end.p0(i64 80, ptr nonnull %6) #7
  call void @llvm.lifetime.end.p0(i64 8, ptr nonnull %5)
  br label %88

47:                                               ; preds = %28
  %48 = tail call i64 @EVP_MAC_CTX_get_mac_size(ptr noundef nonnull %13) #7
  %49 = icmp eq i64 %48, 0
  br i1 %49, label %.thread, label %50

50:                                               ; preds = %47
  %51 = getelementptr inbounds nuw i8, ptr %0, i64 88
  %52 = load i64, ptr %51, align 8, !tbaa !24
  %.not60 = icmp eq i64 %52, 0
  %.not61 = icmp eq i64 %52, %48
  %or.cond = or i1 %.not60, %.not61
  br i1 %or.cond, label %53, label %.thread.sink.split

53:                                               ; preds = %50
  %54 = getelementptr inbounds nuw i8, ptr %0, i64 8
  %55 = load i32, ptr %54, align 8, !tbaa !25
  %56 = icmp eq i32 %55, 0
  br i1 %56, label %57, label %62

57:                                               ; preds = %53
  %58 = getelementptr inbounds nuw i8, ptr %0, i64 24
  %59 = load i32, ptr %58, align 8, !tbaa !12
  %60 = zext nneg i32 %59 to i64
  %61 = udiv i64 %2, %48
  %.highbits = lshr i64 %61, %60
  %.not62 = icmp eq i64 %.highbits, 0
  br i1 %.not62, label %62, label %.thread.sink.split

62:                                               ; preds = %57, %53
  %63 = getelementptr inbounds nuw i8, ptr %0, i64 96
  %64 = load i32, ptr %63, align 8, !tbaa !13
  %65 = tail call noalias ptr @CRYPTO_zalloc(i64 noundef %48, ptr noundef nonnull @.str, i32 noundef 352) #7
  %66 = icmp eq ptr %65, null
  br i1 %66, label %.thread, label %67

67:                                               ; preds = %62
  %.not63 = icmp eq i32 %64, 0
  %.tr = trunc i64 %2 to i32
  %68 = shl i32 %.tr, 3
  %69 = tail call i32 @llvm.bswap.i32(i32 %68)
  %.049 = select i1 %.not63, i32 0, i32 %69
  %70 = load ptr, ptr %12, align 8, !tbaa !16
  %71 = load i32, ptr %54, align 8, !tbaa !25
  %72 = getelementptr inbounds nuw i8, ptr %0, i64 80
  %73 = load ptr, ptr %72, align 8, !tbaa !23
  %74 = load i64, ptr %51, align 8, !tbaa !24
  %75 = getelementptr inbounds nuw i8, ptr %0, i64 48
  %76 = load ptr, ptr %75, align 8, !tbaa !19
  %77 = getelementptr inbounds nuw i8, ptr %0, i64 56
  %78 = load i64, ptr %77, align 8, !tbaa !20
  %79 = getelementptr inbounds nuw i8, ptr %0, i64 64
  %80 = load ptr, ptr %79, align 8, !tbaa !21
  %81 = getelementptr inbounds nuw i8, ptr %0, i64 72
  %82 = load i64, ptr %81, align 8, !tbaa !22
  %83 = getelementptr inbounds nuw i8, ptr %0, i64 104
  %84 = load i32, ptr %83, align 8, !tbaa !14
  %85 = getelementptr inbounds nuw i8, ptr %0, i64 24
  %86 = load i32, ptr %85, align 8, !tbaa !12
  %87 = tail call fastcc i32 @derive(ptr noundef %70, i32 noundef %71, ptr noundef %73, i64 noundef %74, ptr noundef %76, i64 noundef %78, ptr noundef %80, i64 noundef %82, ptr noundef %65, i64 noundef %48, i32 noundef %.049, i32 noundef %84, ptr noundef %1, i64 noundef %2, i32 noundef %86)
  br label %88

88:                                               ; preds = %67, %kmac_derive.exit
  %.051 = phi i32 [ %46, %kmac_derive.exit ], [ %87, %67 ]
  %.050 = phi ptr [ null, %kmac_derive.exit ], [ %65, %67 ]
  %.048 = phi i64 [ 0, %kmac_derive.exit ], [ %48, %67 ]
  %.not64.not = icmp eq i32 %.051, 0
  br i1 %.not64.not, label %.thread, label %89

.thread.sink.split:                               ; preds = %57, %50
  %.sink75 = phi i32 [ 336, %50 ], [ 344, %57 ]
  %.sink = phi i32 [ 154, %50 ], [ 105, %57 ]
  tail call void @ERR_new() #7
  tail call void @ERR_set_debug(ptr noundef nonnull @.str, i32 noundef %.sink75, ptr noundef nonnull @__func__.kbkdf_derive) #7
  tail call void (i32, i32, ptr, ...) @ERR_set_error(i32 noundef 57, i32 noundef %.sink, ptr noundef null) #7
  br label %.thread

.thread:                                          ; preds = %.thread.sink.split, %62, %47, %88
  %.04874 = phi i64 [ %.048, %88 ], [ %48, %62 ], [ 0, %47 ], [ %48, %.thread.sink.split ]
  %.05072 = phi ptr [ %.050, %88 ], [ null, %62 ], [ null, %47 ], [ null, %.thread.sink.split ]
  call void @OPENSSL_cleanse(ptr noundef %1, i64 noundef %2) #7
  br label %89

89:                                               ; preds = %.thread, %88
  %.04873 = phi i64 [ %.04874, %.thread ], [ %.048, %88 ]
  %.05071 = phi ptr [ %.05072, %.thread ], [ %.050, %88 ]
  %.05169 = phi i32 [ 0, %.thread ], [ 1, %88 ]
  call void @CRYPTO_clear_free(ptr noundef %.05071, i64 noundef %.04873, ptr noundef nonnull @.str, i32 noundef 362) #7
  br label %90

90:                                               ; preds = %4, %9, %89, %27, %24, %23
  %.0 = phi i32 [ 0, %23 ], [ 0, %24 ], [ 0, %27 ], [ %.05169, %89 ], [ 0, %9 ], [ 0, %4 ]
  ret i32 %.0
}